target datalayout = "e-m:e-p270:32:32-p271:32:32-p272:64:64-i64:64-i128:128-f80:128-n8:16:32:64-S128"
target triple = "x86_64-pc-linux-gnu"

%struct.jv = type { i8, i8, i16, i32, %union.anon }
%union.anon = type { ptr }

@.str.30 = private unnamed_addr constant [19 x i8] c"Test jq_state: %s\0A\00", align 1

; Function Attrs: nounwind uwtable
define internal i32 @jv_is_valid(i64 %0, ptr %1) #0 {
  %3 = alloca %struct.jv, align 8
  %4 = getelementptr inbounds nuw { i64, ptr }, ptr %3, i32 0, i32 0
  store i64 %0, ptr %4, align 8
  %5 = getelementptr inbounds nuw { i64, ptr }, ptr %3, i32 0, i32 1
  store ptr %1, ptr %5, align 8
  %6 = getelementptr inbounds nuw { i64, ptr }, ptr %3, i32 0, i32 0
  %7 = load i64, ptr %6, align 8
  %8 = getelementptr inbounds nuw { i64, ptr }, ptr %3, i32 0, i32 1
  %9 = load ptr, ptr %8, align 8
  %10 = call i32 @jv_get_kind(i64 %7, ptr %9)
  %11 = icmp ne i32 %10, 0
  %12 = zext i1 %11 to i32
  ret i32 %12
}

; Function Attrs: nounwind uwtable
define internal void @test_jq_start_resets_state(ptr noundef %0, ptr noundef %1) #0 {
  %3 = alloca ptr, align 8
  %4 = alloca ptr, align 8
  %5 = alloca ptr, align 8
  %6 = alloca i32, align 4
  %7 = alloca %struct.jv, align 8
  %8 = alloca %struct.jv, align 8
  %9 = alloca i32, align 4
  %10 = alloca i32, align 4
  %11 = alloca %struct.jv, align 8
  store ptr %0, ptr %3, align 8, !tbaa !13
  store ptr %1, ptr %4, align 8, !tbaa !13
  %12 = load ptr, ptr %3, align 8, !tbaa !13
  %13 = call i32 (ptr, ...) @printf(ptr noundef @.str.30, ptr noundef %12)
  call void @llvm.lifetime.start.p0(i64 8, ptr %5) #9
  %14 = call ptr @jq_init()
  store ptr %14, ptr %5, align 8, !tbaa !17
  call void @llvm.lifetime.start.p0(i64 4, ptr %6) #9
  %15 = load ptr, ptr %5, align 8, !tbaa !17
  %16 = load ptr, ptr %3, align 8, !tbaa !13
  %17 = call i32 @jq_compile(ptr noundef %15, ptr noundef %16)
  store i32 %17, ptr %6, align 4, !tbaa !4
  call void @llvm.lifetime.start.p0(i64 16, ptr %7) #9
  %18 = load ptr, ptr %4, align 8, !tbaa !13
  %19 = call { i64, ptr } @jv_parse(ptr noundef %18)
  %20 = getelementptr inbounds nuw { i64, ptr }, ptr %7, i32 0, i32 0
  %21 = extractvalue { i64, ptr } %19, 0
  store i64 %21, ptr %20, align 8
  %22 = getelementptr inbounds nuw { i64, ptr }, ptr %7, i32 0, i32 1
  %23 = extractvalue { i64, ptr } %19, 1
  store ptr %23, ptr %22, align 8
  %24 = load ptr, ptr %5, align 8, !tbaa !17
  %25 = getelementptr inbounds nuw { i64, ptr }, ptr %7, i32 0, i32 0
  %26 = load i64, ptr %25, align 8
  %27 = getelementptr inbounds nuw { i64, ptr }, ptr %7, i32 0, i32 1
  %28 = load ptr, ptr %27, align 8
  call void @jq_start(ptr noundef %24, i64 %26, ptr %28, i32 noundef 0)
  br label %29

29:                                               ; preds = %52, %2
  br label %30

30:                                               ; preds = %29
  call void @llvm.lifetime.start.p0(i64 16, ptr %8) #9
  %31 = load ptr, ptr %5, align 8, !tbaa !17
  %32 = call { i64, ptr } @jq_next(ptr noundef %31)
  %33 = getelementptr inbounds nuw { i64, ptr }, ptr %8, i32 0, i32 0
  %34 = extractvalue { i64, ptr } %32, 0
  store i64 %34, ptr %33, align 8
  %35 = getelementptr inbounds nuw { i64, ptr }, ptr %8, i32 0, i32 1
  %36 = extractvalue { i64, ptr } %32, 1
  store ptr %36, ptr %35, align 8
  call void @llvm.lifetime.start.p0(i64 4, ptr %9) #9
  %37 = getelementptr inbounds nuw { i64, ptr }, ptr %8, i32 0, i32 0
  %38 = load i64, ptr %37, align 8
  %39 = getelementptr inbounds nuw { i64, ptr }, ptr %8, i32 0, i32 1
  %40 = load ptr, ptr %39, align 8
  %41 = call i32 @jv_is_valid(i64 %38, ptr %40)
  store i32 %41, ptr %9, align 4, !tbaa !4
  %42 = getelementptr inbounds nuw { i64, ptr }, ptr %8, i32 0, i32 0
  %43 = load i64, ptr %42, align 8
  %44 = getelementptr inbounds nuw { i64, ptr }, ptr %8, i32 0, i32 1
  %45 = load ptr, ptr %44, align 8
  call void @jv_free(i64 %43, ptr %45)
  %46 = load i32, ptr %9, align 4, !tbaa !4
  %47 = icmp ne i32 %46, 0
  br i1 %47, label %49, label %48

48:                                               ; preds = %30
  store i32 3, ptr %10, align 4
  br label %50

49:                                               ; preds = %30
  store i32 0, ptr %10, align 4
  br label %50

50:                                               ; preds = %49, %48
  call void @llvm.lifetime.end.p0(i64 4, ptr %9) #9
  call void @llvm.lifetime.end.p0(i64 16, ptr %8) #9
  %51 = load i32, ptr %10, align 4
  switch i32 %51, label %65 [
    i32 0, label %52
    i32 3, label %53
  ]

52:                                               ; preds = %50
  br label %29

53:                                               ; preds = %50
  call void @llvm.lifetime.start.p0(i64 16, ptr %11) #9
  %54 = load ptr, ptr %4, align 8, !tbaa !13
  %55 = call { i64, ptr } @jv_parse(ptr noundef %54)
  %56 = getelementptr inbounds nuw { i64, ptr }, ptr %11, i32 0, i32 0
  %57 = extractvalue { i64, ptr } %55, 0
  store i64 %57, ptr %56, align 8
  %58 = getelementptr inbounds nuw { i64, ptr }, ptr %11, i32 0, i32 1
  %59 = extractvalue { i64, ptr } %55, 1
  store ptr %59, ptr %58, align 8
  %60 = load ptr, ptr %5, align 8, !tbaa !17
  %61 = getelementptr inbounds nuw { i64, ptr }, ptr %11, i32 0, i32 0
  %62 = load i64, ptr %61, align 8
  %63 = getelementptr inbounds nuw { i64, ptr }, ptr %11, i32 0, i32 1
  %64 = load ptr, ptr %63, align 8
  call void @jq_start(ptr noundef %60, i64 %62, ptr %64, i32 noundef 0)
  call void @jq_teardown(ptr noundef %5)
  call void @llvm.lifetime.end.p0(i64 16, ptr %11) #9
  call void @llvm.lifetime.end.p0(i64 16, ptr %7) #9
  call void @llvm.lifetime.end.p0(i64 4, ptr %6) #9
  call void @llvm.lifetime.end.p0(i64 8, ptr %5) #9
  ret void

65:                                               ; preds = %50
  unreachable
}