; Function Attrs: nounwind uwtable
define internal fastcc void @test_jq_start_resets_state(ptr noundef %0) unnamed_addr #0 {
  %2 = alloca ptr, align 8
  %3 = tail call i32 (ptr, ...) @printf(ptr noundef nonnull dereferenceable(1) @.str.30, ptr noundef %0)
  call void @llvm.lifetime.start.p0(i64 8, ptr nonnull %2) #13
  %4 = tail call ptr @jq_init() #13
  store ptr %4, ptr %2, align 8, !tbaa !15
  %5 = tail call i32 @jq_compile(ptr noundef %4, ptr noundef %0) #13
  %6 = tail call { i64, ptr } @jv_parse(ptr noundef nonnull @.str.28) #13
  %7 = extractvalue { i64, ptr } %6, 0
  %8 = extractvalue { i64, ptr } %6, 1
  tail call void @jq_start(ptr noundef %4, i64 %7, ptr %8, i32 noundef 0) #13
  br label %9

9:                                                ; preds = %9, %1
  %10 = tail call { i64, ptr } @jq_next(ptr noundef %4) #13
  %11 = extractvalue { i64, ptr } %10, 0
  %12 = extractvalue { i64, ptr } %10, 1
  %13 = tail call i32 @jv_get_kind(i64 %11, ptr %12) #13
  %.not1 = icmp eq i32 %13, 0
  tail call void @jv_free(i64 %11, ptr %12) #13
  br i1 %.not1, label %14, label %9

14:                                               ; preds = %9
  %15 = tail call { i64, ptr } @jv_parse(ptr noundef nonnull @.str.28) #13
  %16 = extractvalue { i64, ptr } %15, 0
  %17 = extractvalue { i64, ptr } %15, 1
  tail call void @jq_start(ptr noundef %4, i64 %16, ptr %17, i32 noundef 0) #13
  call void @jq_teardown(ptr noundef nonnull %2) #13
  call void @llvm.lifetime.end.p0(i64 8, ptr nonnull %2) #13
  ret void
}